target datalayout = "e-m:e-p270:32:32-p271:32:32-p272:64:64-i64:64-i128:128-f80:128-n8:16:32:64-S128"
target triple = "x86_64-pc-linux-gnu"

%struct.ossl_quic_tx_packetiser_st = type { %struct.ossl_quic_tx_packetiser_args_st, ptr, i64, ptr, ptr, %struct.quic_fifd_st, [3 x i64], %struct.OSSL_TIME, i64, i16, %struct.ossl_quic_frame_conn_close_st, i64, i64, [4 x %struct.txp_el], ptr, ptr, ptr, ptr, ptr }
%struct.ossl_quic_tx_packetiser_args_st = type { %struct.quic_conn_id_st, %struct.quic_conn_id_st, %union.bio_addr_st, i32, ptr, ptr, ptr, ptr, ptr, ptr, ptr, ptr, ptr, ptr, ptr, ptr, ptr, ptr, ptr, i32, [3 x ptr] }
%struct.quic_conn_id_st = type { i8, [20 x i8] }
%union.bio_addr_st = type { %struct.sockaddr_in6, [84 x i8] }
%struct.sockaddr_in6 = type { i16, i16, i32, %struct.in6_addr, i32 }
%struct.in6_addr = type { %union.anon }
%union.anon = type { [4 x i32] }
%struct.quic_fifd_st = type { ptr, ptr, ptr, ptr, ptr, ptr, ptr, ptr, ptr, ptr, ptr, ptr, ptr }
%struct.OSSL_TIME = type { i64 }
%struct.ossl_quic_frame_conn_close_st = type { i8, i64, i64, ptr, i64 }
%struct.txp_el = type { ptr, i64, ptr, i64 }
%struct.quic_stream_st = type { %struct.quic_stream_list_node_st, %struct.quic_stream_list_node_st, %struct.quic_stream_list_node_st, ptr, i64, i64, i64, i64, i64, i64, i64, ptr, ptr, %struct.quic_txfc_st, %struct.quic_rxfc_st, i64 }
%struct.quic_stream_list_node_st = type { ptr, ptr }
%struct.quic_txfc_st = type { ptr, i64, i64, i8 }
%struct.quic_rxfc_st = type { i64, i64, i64, i64, i64, i64, i64, %struct.OSSL_TIME, ptr, ptr, ptr, i8, i8, i8, i8 }

; Function Attrs: nounwind uwtable
define internal ptr @get_sstream_by_id(i64 noundef %0, i32 noundef %1, ptr noundef %2) #0 {
  %4 = alloca ptr, align 8
  %5 = alloca i64, align 8
  %6 = alloca i32, align 4
  %7 = alloca ptr, align 8
  %8 = alloca ptr, align 8
  %9 = alloca ptr, align 8
  %10 = alloca i32, align 4
  store i64 %0, ptr %5, align 8, !tbaa !28
  store i32 %1, ptr %6, align 4, !tbaa !43
  store ptr %2, ptr %7, align 8, !tbaa !53
  call void @llvm.lifetime.start.p0(i64 8, ptr %8) #7
  %11 = load ptr, ptr %7, align 8, !tbaa !53
  store ptr %11, ptr %8, align 8, !tbaa !3
  call void @llvm.lifetime.start.p0(i64 8, ptr %9) #7
  %12 = load i64, ptr %5, align 8, !tbaa !28
  %13 = icmp eq i64 %12, -1
  br i1 %13, label %14, label %22

14:                                               ; preds = %3
  %15 = load ptr, ptr %8, align 8, !tbaa !3
  %16 = getelementptr inbounds nuw %struct.ossl_quic_tx_packetiser_st, ptr %15, i32 0, i32 0
  %17 = getelementptr inbounds nuw %struct.ossl_quic_tx_packetiser_args_st, ptr %16, i32 0, i32 20
  %18 = load i32, ptr %6, align 4, !tbaa !43
  %19 = zext i32 %18 to i64
  %20 = getelementptr inbounds nuw [3 x ptr], ptr %17, i64 0, i64 %19
  %21 = load ptr, ptr %20, align 8, !tbaa !60
  store ptr %21, ptr %4, align 8
  store i32 1, ptr %10, align 4
  br label %36

22:                                               ; preds = %3
  %23 = load ptr, ptr %8, align 8, !tbaa !3
  %24 = getelementptr inbounds nuw %struct.ossl_quic_tx_packetiser_st, ptr %23, i32 0, i32 0
  %25 = getelementptr inbounds nuw %struct.ossl_quic_tx_packetiser_args_st, ptr %24, i32 0, i32 8
  %26 = load ptr, ptr %25, align 8, !tbaa !62
  %27 = load i64, ptr %5, align 8, !tbaa !28
  %28 = call ptr @ossl_quic_stream_map_get_by_id(ptr noundef %26, i64 noundef %27)
  store ptr %28, ptr %9, align 8, !tbaa !63
  %29 = load ptr, ptr %9, align 8, !tbaa !63
  %30 = icmp eq ptr %29, null
  br i1 %30, label %31, label %32

31:                                               ; preds = %22
  store ptr null, ptr %4, align 8
  store i32 1, ptr %10, align 4
  br label %36

32:                                               ; preds = %22
  %33 = load ptr, ptr %9, align 8, !tbaa !63
  %34 = getelementptr inbounds nuw %struct.quic_stream_st, ptr %33, i32 0, i32 11
  %35 = load ptr, ptr %34, align 8, !tbaa !65
  store ptr %35, ptr %4, align 8
  store i32 1, ptr %10, align 4
  br label %36

36:                                               ; preds = %32, %31, %14
  call void @llvm.lifetime.end.p0(i64 8, ptr %9) #7
  call void @llvm.lifetime.end.p0(i64 8, ptr %8) #7
  %37 = load ptr, ptr %4, align 8
  ret ptr %37
}