; Function Attrs: nounwind uwtable
define internal ptr @get_sstream_by_id(i64 noundef %0, i32 noundef %1, ptr noundef readonly captures(none) %2) #3 {
  %4 = icmp eq i64 %0, -1
  br i1 %4, label %5, label %10

5:                                                ; preds = %3
  %6 = getelementptr inbounds nuw i8, ptr %2, i64 288
  %7 = zext i32 %1 to i64
  %8 = getelementptr inbounds nuw [3 x ptr], ptr %6, i64 0, i64 %7
  %9 = load ptr, ptr %8, align 8, !tbaa !55
  br label %18

10:                                               ; preds = %3
  %11 = getelementptr inbounds nuw i8, ptr %2, i64 192
  %12 = load ptr, ptr %11, align 8, !tbaa !57
  %13 = tail call ptr @ossl_quic_stream_map_get_by_id(ptr noundef %12, i64 noundef %0) #10
  %14 = icmp eq ptr %13, null
  br i1 %14, label %18, label %15

15:                                               ; preds = %10
  %16 = getelementptr inbounds nuw i8, ptr %13, i64 112
  %17 = load ptr, ptr %16, align 8, !tbaa !58
  br label %18

18:                                               ; preds = %10, %15, %5
  %.0 = phi ptr [ %9, %5 ], [ %17, %15 ], [ null, %10 ]
  ret ptr %.0
}